ccopy_reg
_reconstructor
p0
(cmedpy.filter.IntensityRangeStandardization
IntensityRangeStandardization
p1
c__builtin__
object
p2
Ntp3
Rp4
(dp5
S'_IntensityRangeStandardization__stdrange'
p6
(cnumpy.core.multiarray
scalar
p7
(cnumpy
dtype
p8
(S'f8'
p9
I0
I1
tp10
Rp11
(I3
S'<'
p12
NNNI-1
I-1
I0
tp13
bS'\xe2\xcd\x10d\x7fpx\xc0'
p14
tp15
Rp16
g7
(g11
S'x3\x04\xc9\x1aK\x94@'
p17
tp18
Rp19
tp20
sS'_IntensityRangeStandardization__model'
p21
(lp22
g16
ag7
(g11
S'9mhA\xa6\x80Z\xc0'
p23
tp24
Rp25
ag7
(g11
S'S[\xa9\x9f\xa9QK\xc0'
p26
tp27
Rp28
ag7
(g11
S'[ \xa5\x89\xe16,\xc0'
p29
tp30
Rp31
ag7
(g11
S'\x0b\xb5QbE\xa0?@'
p32
tp33
Rp34
ag7
(g11
S'\xaf\x85\xbe(\x1d\x96U@'
p35
tp36
Rp37
ag7
(g11
S'\x11\xb1\x0b\xc6\xdb\x13c@'
p38
tp39
Rp40
ag7
(g11
S'\xd2\xb6\xd9\xa3_\x10n@'
p41
tp42
Rp43
ag7
(g11
S'\xdc\x83\xf4<\xfdhx@'
p44
tp45
Rp46
ag7
(g11
S']b\xe8iC\xad\x85@'
p47
tp48
Rp49
ag19
asS'_IntensityRangeStandardization__sc_umins'
p50
(lp51
g16
ag7
(g11
S'OiL\xc7\xa0^q\xc0'
p52
tp53
Rp54
ag7
(g11
S'\xf1-\x10nX\x9fl\xc0'
p55
tp56
Rp57
ag7
(g11
S'\x0eHG\xa3\xb2Ih\xc0'
p58
tp59
Rp60
ag7
(g11
S'\xbb\xb3\x1e\x19\xd6Fc\xc0'
p61
tp62
Rp63
ag7
(g11
S'\x10yXzt6Z\xc0'
p64
tp65
Rp66
ag7
(g11
S'(\xf1\x85\xd2\xda\xc1D\xc0'
p67
tp68
Rp69
ag7
(g11
S'Hb\x91\xb5\xbb\xbaD@'
p70
tp71
Rp72
ag7
(g11
S'\xf0NS\xc81Bf@'
p73
tp74
Rp75
ag7
(g11
S'\x08\xf3:\x9e\x82\x86}@'
p76
tp77
Rp78
ag19
asS'_IntensityRangeStandardization__sc_umaxs'
p79
(lp80
g16
ag7
(g11
S'4\x1eg\xaa\xc8\x99m@'
p81
tp82
Rp83
ag7
(g11
S"\xc0\xf8'D\xffuq@"
p84
tp85
Rp86
ag7
(g11
S'L\xe7\x17B(\x9es@'
p87
tp88
Rp89
ag7
(g11
S'\xf2\xce\xf2e%\x03v@'
p90
tp91
Rp92
ag7
(g11
S'\x9c)\x1fz\x98\xe0x@'
p93
tp94
Rp95
ag7
(g11
S'\x14\xf0\x96\xbb\xff\x08|@'
p96
tp97
Rp98
ag7
(g11
S'\xf2v\xec\xea\xd5=\x80@'
p99
tp100
Rp101
ag7
(g11
S'\xa1[>\xfc\xe9\x8f\x85@'
p102
tp103
Rp104
ag7
(g11
S'\xed\xa2w\xf7\x0bf\x8e@'
p105
tp106
Rp107
ag19
asS'_IntensityRangeStandardization__cutoffp'
p108
(lp109
F1.0
aF99.0
asS'_IntensityRangeStandardization__landmarkp'
p110
(lp111
F10.0
aF20.0
aF30.0
aF40.0
aF50.0
aF60.0
aF70.0
aF80.0
aF90.0
asb.