ccopy_reg
_reconstructor
p0
(cmedpy.filter.IntensityRangeStandardization
IntensityRangeStandardization
p1
c__builtin__
object
p2
Ntp3
Rp4
(dp5
S'_IntensityRangeStandardization__stdrange'
p6
(cnumpy.core.multiarray
scalar
p7
(cnumpy
dtype
p8
(S'f8'
p9
I0
I1
tp10
Rp11
(I3
S'<'
p12
NNNI-1
I-1
I0
tp13
bS'\xcc\x83T\xdaM\x1ej\xc0'
p14
tp15
Rp16
g7
(g11
S'\xf3 \x95\xf6 \xaf\x8d@'
p17
tp18
Rp19
tp20
sS'_IntensityRangeStandardization__model'
p21
(lp22
g16
ag7
(g11
S'\xa5,[\xe13\xa65@'
p23
tp24
Rp25
ag7
(g11
S'k\xcekz$\rb@'
p26
tp27
Rp28
ag7
(g11
S'\xc60\xf4c\xefXi@'
p29
tp30
Rp31
ag7
(g11
S'0F~\xf3\xdd\x13o@'
p32
tp33
Rp34
ag7
(g11
S'>\x88\xf3\xd2\x93]r@'
p35
tp36
Rp37
ag7
(g11
S'\x11y7\x8b\xca+u@'
p38
tp39
Rp40
ag7
(g11
S'%\xd2\xd1ix\xe1w@'
p41
tp42
Rp43
ag7
(g11
S'\xab\xb6\x8b\x02+\x8ez@'
p44
tp45
Rp46
ag7
(g11
S'u\xc6\xa7\x08\x17\xd4}@'
p47
tp48
Rp49
ag19
asS'_IntensityRangeStandardization__sc_umins'
p50
(lp51
g16
ag7
(g11
S',\xfd\x02\xb9J\xc6F\xc0'
p52
tp53
Rp54
ag7
(g11
S'\xf4\xf80\x86\xf0\xcfR@'
p55
tp56
Rp57
ag7
(g11
S'\x94\xb8\xeb\xa8J/_@'
p58
tp59
Rp60
ag7
(g11
S'\x809\xa0\x13O_d@'
p61
tp62
Rp63
ag7
(g11
S'hd\x1f\x05\x81\xf6h@'
p64
tp65
Rp66
ag7
(g11
S'\xe8\x17\x1eTo~m@'
p67
tp68
Rp69
ag7
(g11
S'\xd6l\xf0\x15\xaf\x0cq@'
p70
tp71
Rp72
ag7
(g11
S'>Of\x07\x1a\xfbr@'
p73
tp74
Rp75
ag7
(g11
S'v\x97Yj\xa7\xd1u@'
p76
tp77
Rp78
ag19
asS'_IntensityRangeStandardization__sc_umaxs'
p79
(lp80
g16
ag7
(g11
S'\xd8\xe8\x1cQ\x1d\x06_@'
p81
tp82
Rp83
ag7
(g11
S'\x8a\xf9\xd0\x03y"l@'
p84
tp85
Rp86
ag7
(g11
S'a\x9d \xa0\xb8Ur@'
p87
tp88
Rp89
ag7
(g11
S'8\xad\xc3_I\xf8v@'
p90
tp91
Rp92
ag7
(g11
S'VX\xad,\x1d\x8f{@'
p93
tp94
Rp95
ag7
(g11
S'RW\x9a\xf0 "\x80@'
p96
tp97
Rp98
ag7
(g11
S'\xb6\x1c\x1b\xa7\x16V\x82@'
p99
tp100
Rp101
ag7
(g11
S'\xc7\xd7\xeb\x81\x8f\x99\x84@'
p102
tp103
Rp104
ag7
(g11
S'\x81\xfe\xa55\xb6\x08\x87@'
p105
tp106
Rp107
ag19
asS'_IntensityRangeStandardization__cutoffp'
p108
(lp109
F1.0
aF99.0
asS'_IntensityRangeStandardization__landmarkp'
p110
(lp111
F10.0
aF20.0
aF30.0
aF40.0
aF50.0
aF60.0
aF70.0
aF80.0
aF90.0
asb.